
stack:     file format elf64-x86-64

SYMBOL TABLE:
0000000000400238 l    d  .interp	0000000000000000              .interp
0000000000400254 l    d  .note.ABI-tag	0000000000000000              .note.ABI-tag
0000000000400274 l    d  .note.gnu.build-id	0000000000000000              .note.gnu.build-id
0000000000400298 l    d  .gnu.hash	0000000000000000              .gnu.hash
00000000004002b8 l    d  .dynsym	0000000000000000              .dynsym
0000000000400348 l    d  .dynstr	0000000000000000              .dynstr
00000000004003aa l    d  .gnu.version	0000000000000000              .gnu.version
00000000004003b8 l    d  .gnu.version_r	0000000000000000              .gnu.version_r
00000000004003e8 l    d  .rela.dyn	0000000000000000              .rela.dyn
0000000000400400 l    d  .rela.plt	0000000000000000              .rela.plt
0000000000400478 l    d  .init	0000000000000000              .init
00000000004004a0 l    d  .plt	0000000000000000              .plt
0000000000400500 l    d  .text	0000000000000000              .text
00000000004006e4 l    d  .fini	0000000000000000              .fini
00000000004006f0 l    d  .rodata	0000000000000000              .rodata
0000000000400734 l    d  .eh_frame_hdr	0000000000000000              .eh_frame_hdr
0000000000400778 l    d  .eh_frame	0000000000000000              .eh_frame
0000000000600e10 l    d  .init_array	0000000000000000              .init_array
0000000000600e18 l    d  .fini_array	0000000000000000              .fini_array
0000000000600e20 l    d  .jcr	0000000000000000              .jcr
0000000000600e28 l    d  .dynamic	0000000000000000              .dynamic
0000000000600ff8 l    d  .got	0000000000000000              .got
0000000000601000 l    d  .got.plt	0000000000000000              .got.plt
0000000000601040 l    d  .data	0000000000000000              .data
0000000000601050 l    d  .bss	0000000000000000              .bss
0000000000000000 l    d  .comment	0000000000000000              .comment
0000000000000000 l    d  .debug_aranges	0000000000000000              .debug_aranges
0000000000000000 l    d  .debug_info	0000000000000000              .debug_info
0000000000000000 l    d  .debug_abbrev	0000000000000000              .debug_abbrev
0000000000000000 l    d  .debug_line	0000000000000000              .debug_line
0000000000000000 l    d  .debug_str	0000000000000000              .debug_str
0000000000000000 l    df *ABS*	0000000000000000              crtstuff.c
0000000000600e20 l     O .jcr	0000000000000000              __JCR_LIST__
0000000000400530 l     F .text	0000000000000000              deregister_tm_clones
0000000000400560 l     F .text	0000000000000000              register_tm_clones
00000000004005a0 l     F .text	0000000000000000              __do_global_dtors_aux
0000000000601050 l     O .bss	0000000000000001              completed.6973
0000000000600e18 l     O .fini_array	0000000000000000              __do_global_dtors_aux_fini_array_entry
00000000004005c0 l     F .text	0000000000000000              frame_dummy
0000000000600e10 l     O .init_array	0000000000000000              __frame_dummy_init_array_entry
0000000000000000 l    df *ABS*	0000000000000000              program-with-buffer-overflow.c
0000000000000000 l    df *ABS*	0000000000000000              crtstuff.c
00000000004008a8 l     O .eh_frame	0000000000000000              __FRAME_END__
0000000000600e20 l     O .jcr	0000000000000000              __JCR_END__
0000000000000000 l    df *ABS*	0000000000000000              
0000000000600e18 l       .init_array	0000000000000000              __init_array_end
0000000000600e28 l     O .dynamic	0000000000000000              _DYNAMIC
0000000000600e10 l       .init_array	0000000000000000              __init_array_start
0000000000601000 l     O .got.plt	0000000000000000              _GLOBAL_OFFSET_TABLE_
00000000004006e0 g     F .text	0000000000000002              __libc_csu_fini
0000000000000000  w      *UND*	0000000000000000              _ITM_deregisterTMCloneTable
0000000000601040  w      .data	0000000000000000              data_start
0000000000000000       F *UND*	0000000000000000              strcpy@@GLIBC_2.2.5
0000000000601050 g       .data	0000000000000000              _edata
00000000004005ed g     F .text	0000000000000044              bar
00000000004006e4 g     F .fini	0000000000000000              _fini
0000000000000000       F *UND*	0000000000000000              __stack_chk_fail@@GLIBC_2.4
0000000000000000       F *UND*	0000000000000000              printf@@GLIBC_2.2.5
0000000000000000       F *UND*	0000000000000000              __libc_start_main@@GLIBC_2.2.5
0000000000601040 g       .data	0000000000000000              __data_start
0000000000000000  w      *UND*	0000000000000000              __gmon_start__
0000000000601048 g     O .data	0000000000000000              .hidden __dso_handle
00000000004006f0 g     O .rodata	0000000000000004              _IO_stdin_used
0000000000400670 g     F .text	0000000000000065              __libc_csu_init
0000000000400631 g     F .text	0000000000000015              foo
0000000000601058 g       .bss	0000000000000000              _end
0000000000400500 g     F .text	0000000000000000              _start
0000000000601050 g       .bss	0000000000000000              __bss_start
0000000000400646 g     F .text	000000000000001f              main
0000000000000000  w      *UND*	0000000000000000              _Jv_RegisterClasses
0000000000601050 g     O .data	0000000000000000              .hidden __TMC_END__
0000000000000000  w      *UND*	0000000000000000              _ITM_registerTMCloneTable
0000000000400478 g     F .init	0000000000000000              _init



Disassembly of section .init:

0000000000400478 <_init>:
  400478:	48 83 ec 08          	sub    $0x8,%rsp
  40047c:	48 8b 05 75 0b 20 00 	mov    0x200b75(%rip),%rax        # 600ff8 <_DYNAMIC+0x1d0>
  400483:	48 85 c0             	test   %rax,%rax
  400486:	74 05                	je     40048d <_init+0x15>
  400488:	e8 63 00 00 00       	callq  4004f0 <__gmon_start__@plt>
  40048d:	48 83 c4 08          	add    $0x8,%rsp
  400491:	c3                   	retq   

Disassembly of section .plt:

00000000004004a0 <strcpy@plt-0x10>:
  4004a0:	ff 35 62 0b 20 00    	pushq  0x200b62(%rip)        # 601008 <_GLOBAL_OFFSET_TABLE_+0x8>
  4004a6:	ff 25 64 0b 20 00    	jmpq   *0x200b64(%rip)        # 601010 <_GLOBAL_OFFSET_TABLE_+0x10>
  4004ac:	0f 1f 40 00          	nopl   0x0(%rax)

00000000004004b0 <strcpy@plt>:
  4004b0:	ff 25 62 0b 20 00    	jmpq   *0x200b62(%rip)        # 601018 <_GLOBAL_OFFSET_TABLE_+0x18>
  4004b6:	68 00 00 00 00       	pushq  $0x0
  4004bb:	e9 e0 ff ff ff       	jmpq   4004a0 <_init+0x28>

00000000004004c0 <__stack_chk_fail@plt>:
  4004c0:	ff 25 5a 0b 20 00    	jmpq   *0x200b5a(%rip)        # 601020 <_GLOBAL_OFFSET_TABLE_+0x20>
  4004c6:	68 01 00 00 00       	pushq  $0x1
  4004cb:	e9 d0 ff ff ff       	jmpq   4004a0 <_init+0x28>

00000000004004d0 <printf@plt>:
  4004d0:	ff 25 52 0b 20 00    	jmpq   *0x200b52(%rip)        # 601028 <_GLOBAL_OFFSET_TABLE_+0x28>
  4004d6:	68 02 00 00 00       	pushq  $0x2
  4004db:	e9 c0 ff ff ff       	jmpq   4004a0 <_init+0x28>

00000000004004e0 <__libc_start_main@plt>:
  4004e0:	ff 25 4a 0b 20 00    	jmpq   *0x200b4a(%rip)        # 601030 <_GLOBAL_OFFSET_TABLE_+0x30>
  4004e6:	68 03 00 00 00       	pushq  $0x3
  4004eb:	e9 b0 ff ff ff       	jmpq   4004a0 <_init+0x28>

00000000004004f0 <__gmon_start__@plt>:
  4004f0:	ff 25 42 0b 20 00    	jmpq   *0x200b42(%rip)        # 601038 <_GLOBAL_OFFSET_TABLE_+0x38>
  4004f6:	68 04 00 00 00       	pushq  $0x4
  4004fb:	e9 a0 ff ff ff       	jmpq   4004a0 <_init+0x28>

Disassembly of section .text:

0000000000400500 <_start>:
  400500:	31 ed                	xor    %ebp,%ebp
  400502:	49 89 d1             	mov    %rdx,%r9
  400505:	5e                   	pop    %rsi
  400506:	48 89 e2             	mov    %rsp,%rdx
  400509:	48 83 e4 f0          	and    $0xfffffffffffffff0,%rsp
  40050d:	50                   	push   %rax
  40050e:	54                   	push   %rsp
  40050f:	49 c7 c0 e0 06 40 00 	mov    $0x4006e0,%r8
  400516:	48 c7 c1 70 06 40 00 	mov    $0x400670,%rcx
  40051d:	48 c7 c7 46 06 40 00 	mov    $0x400646,%rdi
  400524:	e8 b7 ff ff ff       	callq  4004e0 <__libc_start_main@plt>
  400529:	f4                   	hlt    
  40052a:	66 0f 1f 44 00 00    	nopw   0x0(%rax,%rax,1)

0000000000400530 <deregister_tm_clones>:
  400530:	b8 57 10 60 00       	mov    $0x601057,%eax
  400535:	55                   	push   %rbp
  400536:	48 2d 50 10 60 00    	sub    $0x601050,%rax
  40053c:	48 83 f8 0e          	cmp    $0xe,%rax
  400540:	48 89 e5             	mov    %rsp,%rbp
  400543:	77 02                	ja     400547 <deregister_tm_clones+0x17>
  400545:	5d                   	pop    %rbp
  400546:	c3                   	retq   
  400547:	b8 00 00 00 00       	mov    $0x0,%eax
  40054c:	48 85 c0             	test   %rax,%rax
  40054f:	74 f4                	je     400545 <deregister_tm_clones+0x15>
  400551:	5d                   	pop    %rbp
  400552:	bf 50 10 60 00       	mov    $0x601050,%edi
  400557:	ff e0                	jmpq   *%rax
  400559:	0f 1f 80 00 00 00 00 	nopl   0x0(%rax)

0000000000400560 <register_tm_clones>:
  400560:	b8 50 10 60 00       	mov    $0x601050,%eax
  400565:	55                   	push   %rbp
  400566:	48 2d 50 10 60 00    	sub    $0x601050,%rax
  40056c:	48 c1 f8 03          	sar    $0x3,%rax
  400570:	48 89 e5             	mov    %rsp,%rbp
  400573:	48 89 c2             	mov    %rax,%rdx
  400576:	48 c1 ea 3f          	shr    $0x3f,%rdx
  40057a:	48 01 d0             	add    %rdx,%rax
  40057d:	48 d1 f8             	sar    %rax
  400580:	75 02                	jne    400584 <register_tm_clones+0x24>
  400582:	5d                   	pop    %rbp
  400583:	c3                   	retq   
  400584:	ba 00 00 00 00       	mov    $0x0,%edx
  400589:	48 85 d2             	test   %rdx,%rdx
  40058c:	74 f4                	je     400582 <register_tm_clones+0x22>
  40058e:	5d                   	pop    %rbp
  40058f:	48 89 c6             	mov    %rax,%rsi
  400592:	bf 50 10 60 00       	mov    $0x601050,%edi
  400597:	ff e2                	jmpq   *%rdx
  400599:	0f 1f 80 00 00 00 00 	nopl   0x0(%rax)

00000000004005a0 <__do_global_dtors_aux>:
  4005a0:	80 3d a9 0a 20 00 00 	cmpb   $0x0,0x200aa9(%rip)        # 601050 <__TMC_END__>
  4005a7:	75 11                	jne    4005ba <__do_global_dtors_aux+0x1a>
  4005a9:	55                   	push   %rbp
  4005aa:	48 89 e5             	mov    %rsp,%rbp
  4005ad:	e8 7e ff ff ff       	callq  400530 <deregister_tm_clones>
  4005b2:	5d                   	pop    %rbp
  4005b3:	c6 05 96 0a 20 00 01 	movb   $0x1,0x200a96(%rip)        # 601050 <__TMC_END__>
  4005ba:	f3 c3                	repz retq 
  4005bc:	0f 1f 40 00          	nopl   0x0(%rax)

00000000004005c0 <frame_dummy>:
  4005c0:	48 83 3d 58 08 20 00 	cmpq   $0x0,0x200858(%rip)        # 600e20 <__JCR_END__>
  4005c7:	00 
  4005c8:	74 1e                	je     4005e8 <frame_dummy+0x28>
  4005ca:	b8 00 00 00 00       	mov    $0x0,%eax
  4005cf:	48 85 c0             	test   %rax,%rax
  4005d2:	74 14                	je     4005e8 <frame_dummy+0x28>
  4005d4:	55                   	push   %rbp
  4005d5:	bf 20 0e 60 00       	mov    $0x600e20,%edi
  4005da:	48 89 e5             	mov    %rsp,%rbp
  4005dd:	ff d0                	callq  *%rax
  4005df:	5d                   	pop    %rbp
  4005e0:	e9 7b ff ff ff       	jmpq   400560 <register_tm_clones>
  4005e5:	0f 1f 00             	nopl   (%rax)
  4005e8:	e9 73 ff ff ff       	jmpq   400560 <register_tm_clones>

00000000004005ed <bar>:
  4005ed:	55                   	push   %rbp
  4005ee:	48 89 e5             	mov    %rsp,%rbp
  4005f1:	48 83 ec 20          	sub    $0x20,%rsp
  4005f5:	48 89 7d e8          	mov    %rdi,-0x18(%rbp)
  4005f9:	64 48 8b 04 25 28 00 	mov    %fs:0x28,%rax
  400600:	00 00 
  400602:	48 89 45 f8          	mov    %rax,-0x8(%rbp)
  400606:	31 c0                	xor    %eax,%eax
  400608:	48 8b 55 e8          	mov    -0x18(%rbp),%rdx
  40060c:	48 8d 45 f0          	lea    -0x10(%rbp),%rax
  400610:	48 89 d6             	mov    %rdx,%rsi
  400613:	48 89 c7             	mov    %rax,%rdi
  400616:	e8 95 fe ff ff       	callq  4004b0 <strcpy@plt>
  40061b:	48 8b 45 f8          	mov    -0x8(%rbp),%rax
  40061f:	64 48 33 04 25 28 00 	xor    %fs:0x28,%rax
  400626:	00 00 
  400628:	74 05                	je     40062f <bar+0x42>
  40062a:	e8 91 fe ff ff       	callq  4004c0 <__stack_chk_fail@plt>
  40062f:	c9                   	leaveq 
  400630:	c3                   	retq   

0000000000400631 <foo>:
  400631:	55                   	push   %rbp
  400632:	48 89 e5             	mov    %rsp,%rbp
  400635:	bf f8 06 40 00       	mov    $0x4006f8,%edi
  40063a:	b8 00 00 00 00       	mov    $0x0,%eax
  40063f:	e8 8c fe ff ff       	callq  4004d0 <printf@plt>
  400644:	5d                   	pop    %rbp
  400645:	c3                   	retq   

0000000000400646 <main>:
  400646:	55                   	push   %rbp
  400647:	48 89 e5             	mov    %rsp,%rbp
  40064a:	bf 08 07 40 00       	mov    $0x400708,%edi
  40064f:	e8 99 ff ff ff       	callq  4005ed <bar>
  400654:	b8 00 00 00 00       	mov    $0x0,%eax
  400659:	e8 d3 ff ff ff       	callq  400631 <foo>
  40065e:	b8 00 00 00 00       	mov    $0x0,%eax
  400663:	5d                   	pop    %rbp
  400664:	c3                   	retq   
  400665:	66 2e 0f 1f 84 00 00 	nopw   %cs:0x0(%rax,%rax,1)
  40066c:	00 00 00 
  40066f:	90                   	nop

0000000000400670 <__libc_csu_init>:
  400670:	41 57                	push   %r15
  400672:	41 89 ff             	mov    %edi,%r15d
  400675:	41 56                	push   %r14
  400677:	49 89 f6             	mov    %rsi,%r14
  40067a:	41 55                	push   %r13
  40067c:	49 89 d5             	mov    %rdx,%r13
  40067f:	41 54                	push   %r12
  400681:	4c 8d 25 88 07 20 00 	lea    0x200788(%rip),%r12        # 600e10 <__frame_dummy_init_array_entry>
  400688:	55                   	push   %rbp
  400689:	48 8d 2d 88 07 20 00 	lea    0x200788(%rip),%rbp        # 600e18 <__init_array_end>
  400690:	53                   	push   %rbx
  400691:	4c 29 e5             	sub    %r12,%rbp
  400694:	31 db                	xor    %ebx,%ebx
  400696:	48 c1 fd 03          	sar    $0x3,%rbp
  40069a:	48 83 ec 08          	sub    $0x8,%rsp
  40069e:	e8 d5 fd ff ff       	callq  400478 <_init>
  4006a3:	48 85 ed             	test   %rbp,%rbp
  4006a6:	74 1e                	je     4006c6 <__libc_csu_init+0x56>
  4006a8:	0f 1f 84 00 00 00 00 	nopl   0x0(%rax,%rax,1)
  4006af:	00 
  4006b0:	4c 89 ea             	mov    %r13,%rdx
  4006b3:	4c 89 f6             	mov    %r14,%rsi
  4006b6:	44 89 ff             	mov    %r15d,%edi
  4006b9:	41 ff 14 dc          	callq  *(%r12,%rbx,8)
  4006bd:	48 83 c3 01          	add    $0x1,%rbx
  4006c1:	48 39 eb             	cmp    %rbp,%rbx
  4006c4:	75 ea                	jne    4006b0 <__libc_csu_init+0x40>
  4006c6:	48 83 c4 08          	add    $0x8,%rsp
  4006ca:	5b                   	pop    %rbx
  4006cb:	5d                   	pop    %rbp
  4006cc:	41 5c                	pop    %r12
  4006ce:	41 5d                	pop    %r13
  4006d0:	41 5e                	pop    %r14
  4006d2:	41 5f                	pop    %r15
  4006d4:	c3                   	retq   
  4006d5:	66 66 2e 0f 1f 84 00 	data32 nopw %cs:0x0(%rax,%rax,1)
  4006dc:	00 00 00 00 

00000000004006e0 <__libc_csu_fini>:
  4006e0:	f3 c3                	repz retq 

Disassembly of section .fini:

00000000004006e4 <_fini>:
  4006e4:	48 83 ec 08          	sub    $0x8,%rsp
  4006e8:	48 83 c4 08          	add    $0x8,%rsp
  4006ec:	c3                   	retq   
